; Function Attrs: nounwind sspstrong uwtable
define internal i64 @nurat_floor(i64 noundef %0) #0 {
  %2 = inttoptr i64 %0 to ptr
  %3 = getelementptr inbounds nuw i8, ptr %2, i64 16
  %4 = load i64, ptr %3, align 8, !tbaa !19
  %5 = getelementptr inbounds nuw i8, ptr %2, i64 24
  %6 = load i64, ptr %5, align 8, !tbaa !21
  %7 = tail call i64 @rb_int_idiv(i64 noundef %4, i64 noundef %6) #17
  ret i64 %7
}